target datalayout = "e-m:e-p270:32:32-p271:32:32-p272:64:64-i64:64-i128:128-f80:128-n8:16:32:64-S128"
target triple = "x86_64-pc-linux-gnu"

%struct.GenContext_ = type { i8, ptr, ptr, ptr, ptr, ptr, ptr, ptr, ptr, ptr, ptr, ptr, ptr, ptr, ptr, ptr, ptr, ptr, ptr, ptr, ptr, ptr, ptr, ptr, ptr, ptr, ptr, ptr, ptr, ptr, ptr, ptr, ptr, %struct.anon.85, i32, i32, %struct.DebugContext, ptr, ptr, ptr, %struct.BEValue, i8, %union.SourceSpan, ptr, ptr, ptr, ptr }
%struct.anon.85 = type { ptr, ptr, ptr }
%struct.DebugContext = type { i16, ptr, ptr, %struct.DebugFile_, ptr, ptr, ptr, ptr }
%struct.DebugFile_ = type { i16, ptr }
%struct.BEValue = type { i8, i32, ptr, ptr, ptr }
%union.SourceSpan = type { i64 }
%struct.Type_ = type { i32, ptr, ptr, ptr, %union.anon.86, ptr, ptr, %union.anon.88 }
%union.anon.86 = type { ptr }
%union.anon.88 = type { %struct.TypeFunction }
%struct.TypeFunction = type { ptr, ptr, ptr }

@type_usz = external global ptr, align 8

; Function Attrs: nounwind uwtable
define dso_local ptr @llvm_emit_empty_string_const(ptr noundef %0) #0 {
  %2 = alloca ptr, align 8
  store ptr %0, ptr %2, align 8
  %3 = load ptr, ptr %2, align 8
  %4 = getelementptr inbounds %struct.GenContext_, ptr %3, i32 0, i32 28
  %5 = load ptr, ptr %4, align 8
  %6 = call ptr @LLVMConstNull(ptr noundef %5)
  ret ptr %6
}

; Function Attrs: nounwind uwtable
define dso_local ptr @llvm_emit_string_const(ptr noundef %0, ptr noundef %1, ptr noundef %2) #0 {
  %4 = alloca ptr, align 8
  %5 = alloca i32, align 4
  %6 = alloca ptr, align 8
  %7 = alloca ptr, align 8
  %8 = alloca i32, align 4
  %9 = alloca ptr, align 8
  %10 = alloca ptr, align 8
  %11 = alloca i64, align 8
  %12 = alloca ptr, align 8
  %13 = alloca ptr, align 8
  %14 = alloca ptr, align 8
  %15 = alloca ptr, align 8
  %16 = alloca i64, align 8
  %17 = alloca ptr, align 8
  %18 = alloca [2 x ptr], align 16
  store ptr %0, ptr %13, align 8
  store ptr %1, ptr %14, align 8
  store ptr %2, ptr %15, align 8
  %19 = load ptr, ptr %14, align 8
  %20 = icmp ne ptr %19, null
  br i1 %20, label %21, label %24

21:                                               ; preds = %3
  %22 = load ptr, ptr %14, align 8
  %23 = call i64 @strlen(ptr noundef %22) #9
  br label %25

24:                                               ; preds = %3
  br label %25

25:                                               ; preds = %24, %21
  %26 = phi i64 [ %23, %21 ], [ 0, %24 ]
  store i64 %26, ptr %16, align 8
  %27 = load i64, ptr %16, align 8
  %28 = icmp ne i64 %27, 0
  br i1 %28, label %32, label %29

29:                                               ; preds = %25
  %30 = load ptr, ptr %13, align 8
  %31 = call ptr @llvm_emit_empty_string_const(ptr noundef %30)
  store ptr %31, ptr %12, align 8
  br label %78

32:                                               ; preds = %25
  %33 = load ptr, ptr %13, align 8
  %34 = load ptr, ptr %14, align 8
  %35 = load ptr, ptr %15, align 8
  %36 = call ptr @llvm_emit_zstring_named(ptr noundef %33, ptr noundef %34, ptr noundef %35)
  store ptr %36, ptr %17, align 8
  %37 = getelementptr inbounds [2 x ptr], ptr %18, i64 0, i64 0
  %38 = load ptr, ptr %17, align 8
  store ptr %38, ptr %37, align 8
  %39 = getelementptr inbounds ptr, ptr %37, i64 1
  %40 = load ptr, ptr %13, align 8
  %41 = load ptr, ptr @type_usz, align 8
  %42 = load ptr, ptr %14, align 8
  %43 = call i64 @strlen(ptr noundef %42) #9
  store ptr %40, ptr %9, align 8
  store ptr %41, ptr %10, align 8
  store i64 %43, ptr %11, align 8
  %44 = load ptr, ptr %10, align 8
  %45 = call ptr @type_lowering(ptr noundef %44)
  store ptr %45, ptr %10, align 8
  %46 = load ptr, ptr %9, align 8
  %47 = load ptr, ptr %10, align 8
  %48 = call ptr @llvm_get_type(ptr noundef %46, ptr noundef %47) #7
  %49 = load i64, ptr %11, align 8
  %50 = load ptr, ptr %10, align 8
  store ptr %50, ptr %4, align 8
  %51 = load ptr, ptr %4, align 8
  %52 = load i32, ptr %51, align 8
  store i32 %52, ptr %5, align 4
  %53 = load i32, ptr %5, align 4
  %54 = icmp eq i32 %53, 31
  br i1 %54, label %55, label %60

55:                                               ; preds = %32
  %56 = load ptr, ptr %4, align 8
  %57 = getelementptr inbounds %struct.Type_, ptr %56, i32 0, i32 1
  %58 = load ptr, ptr %57, align 8
  %59 = load i32, ptr %58, align 8
  store i32 %59, ptr %5, align 4
  br label %60

60:                                               ; preds = %55, %32
  %61 = load i32, ptr %5, align 4
  %62 = icmp uge i32 %61, 3
  br i1 %62, label %63, label %66

63:                                               ; preds = %60
  %64 = load i32, ptr %5, align 4
  %65 = icmp ule i32 %64, 7
  br label %66

66:                                               ; preds = %63, %60
  %67 = phi i1 [ false, %60 ], [ %65, %63 ]
  %68 = zext i1 %67 to i32
  %69 = call ptr @LLVMConstInt(ptr noundef %48, i64 noundef %49, i32 noundef %68) #7
  store ptr %69, ptr %39, align 8
  %70 = load ptr, ptr %13, align 8
  %71 = getelementptr inbounds %struct.GenContext_, ptr %70, i32 0, i32 28
  %72 = load ptr, ptr %71, align 8
  %73 = getelementptr inbounds [2 x ptr], ptr %18, i64 0, i64 0
  store ptr %72, ptr %6, align 8
  store ptr %73, ptr %7, align 8
  store i32 2, ptr %8, align 4
  %74 = load ptr, ptr %6, align 8
  %75 = load ptr, ptr %7, align 8
  %76 = load i32, ptr %8, align 4
  %77 = call ptr @LLVMConstNamedStruct(ptr noundef %74, ptr noundef %75, i32 noundef %76) #7
  store ptr %77, ptr %12, align 8
  br label %78

78:                                               ; preds = %66, %29
  %79 = load ptr, ptr %12, align 8
  ret ptr %79
}