; Function Attrs: nounwind uwtable
define dso_local ptr @llvm_emit_string_const(ptr noundef %0, ptr noundef %1, ptr noundef %2) local_unnamed_addr #0 {
  %4 = alloca [2 x ptr], align 16
  %.not = icmp eq ptr %1, null
  br i1 %.not, label %.critedge, label %5

5:                                                ; preds = %3
  %char0 = load i8, ptr %1, align 1
  %6 = icmp eq i8 %char0, 0
  br i1 %6, label %.critedge, label %10

.critedge:                                        ; preds = %3, %5
  %7 = getelementptr inbounds i8, ptr %0, i64 224
  %8 = load ptr, ptr %7, align 8
  %9 = tail call ptr @LLVMConstNull(ptr noundef %8) #9
  br label %31

10:                                               ; preds = %5
  %11 = tail call ptr @llvm_emit_zstring_named(ptr noundef %0, ptr noundef nonnull %1, ptr noundef %2)
  store ptr %11, ptr %4, align 16
  %12 = getelementptr inbounds i8, ptr %4, i64 8
  %13 = load ptr, ptr @type_usz, align 8
  %14 = tail call i64 @strlen(ptr noundef nonnull dereferenceable(1) %1) #11
  %15 = tail call fastcc ptr @type_lowering(ptr noundef %13)
  %16 = tail call ptr @llvm_get_type(ptr noundef %0, ptr noundef %15) #9
  %17 = load i32, ptr %15, align 8
  %18 = icmp eq i32 %17, 31
  br i1 %18, label %19, label %23

19:                                               ; preds = %10
  %20 = getelementptr inbounds i8, ptr %15, i64 8
  %21 = load ptr, ptr %20, align 8
  %22 = load i32, ptr %21, align 8
  br label %23

23:                                               ; preds = %19, %10
  %.0 = phi i32 [ %22, %19 ], [ %17, %10 ]
  %24 = add i32 %.0, -3
  %25 = icmp ult i32 %24, 5
  %26 = zext i1 %25 to i32
  %27 = tail call ptr @LLVMConstInt(ptr noundef %16, i64 noundef %14, i32 noundef %26) #9
  store ptr %27, ptr %12, align 8
  %28 = getelementptr inbounds i8, ptr %0, i64 224
  %29 = load ptr, ptr %28, align 8
  %30 = call ptr @LLVMConstNamedStruct(ptr noundef %29, ptr noundef nonnull %4, i32 noundef 2) #9
  br label %31

31:                                               ; preds = %23, %.critedge
  %.024 = phi ptr [ %30, %23 ], [ %9, %.critedge ]
  ret ptr %.024
}